; Function Attrs: mustprogress uwtable
define void @_ZN7rocksdb19GetQueryTraceRecordC2EjONS_13PinnableSliceEm(ptr noundef nonnull align 8 dereferenceable(120) %this, i32 noundef %column_family_id, ptr noundef nonnull align 8 dereferenceable(89) %key, i64 noundef %timestamp) unnamed_addr #2 align 2 personality ptr @__gxx_personality_v0 {
entry:
  %timestamp_.i.i = getelementptr inbounds i8, ptr %this, i64 8
  store i64 %timestamp, ptr %timestamp_.i.i, align 8
  store ptr getelementptr inbounds ({ [9 x ptr] }, ptr @_ZTVN7rocksdb19GetQueryTraceRecordE, i64 0, i32 0, i64 2), ptr %this, align 8
  %cf_id_ = getelementptr inbounds i8, ptr %this, i64 16
  store i32 %column_family_id, ptr %cf_id_, align 8
  %key_ = getelementptr inbounds i8, ptr %this, i64 24
  tail call void @_ZN7rocksdb13PinnableSliceC1EOS0_(ptr noundef nonnull align 8 dereferenceable(89) %key_, ptr noundef nonnull align 8 dereferenceable(89) %key)
  ret void
}